; Function Attrs: nounwind uwtable
define i32 @Aig_ManAntiCleanup(ptr noundef %0) local_unnamed_addr #0 {
  %2 = getelementptr i8, ptr %0, i64 140
  %.val16 = load i32, ptr %2, align 4, !tbaa !35
  %3 = getelementptr inbounds nuw i8, ptr %0, i64 32
  %4 = load ptr, ptr %3, align 8, !tbaa !27
  %5 = getelementptr i8, ptr %4, i64 4
  %.val19 = load i32, ptr %5, align 4, !tbaa !21
  %6 = icmp sgt i32 %.val19, 0
  br i1 %6, label %.lr.ph, label %.critedge

.lr.ph:                                           ; preds = %1, %20
  %7 = phi ptr [ %21, %20 ], [ %4, %1 ]
  %indvars.iv = phi i64 [ %indvars.iv.next, %20 ], [ 0, %1 ]
  %8 = getelementptr i8, ptr %7, i64 8
  %.val13 = load ptr, ptr %8, align 8, !tbaa !24
  %9 = getelementptr inbounds nuw ptr, ptr %.val13, i64 %indvars.iv
  %10 = load ptr, ptr %9, align 8, !tbaa !33
  %11 = icmp eq ptr %10, null
  br i1 %11, label %20, label %12

12:                                               ; preds = %.lr.ph
  %13 = getelementptr i8, ptr %10, i64 24
  %.val14 = load i64, ptr %13, align 8
  %14 = trunc i64 %.val14 to i32
  %15 = and i32 %14, 7
  %16 = add nsw i32 %15, -5
  %narrow.i = icmp ult i32 %16, 2
  %17 = icmp ult i32 %14, 64
  %or.cond = and i1 %17, %narrow.i
  br i1 %or.cond, label %18, label %20

18:                                               ; preds = %12
  %19 = tail call ptr @Aig_ObjCreateCo(ptr noundef nonnull %0, ptr noundef nonnull %10) #19
  %.pre = load ptr, ptr %3, align 8, !tbaa !27
  br label %20

20:                                               ; preds = %.lr.ph, %18, %12
  %21 = phi ptr [ %7, %.lr.ph ], [ %.pre, %18 ], [ %7, %12 ]
  %indvars.iv.next = add nuw nsw i64 %indvars.iv, 1
  %22 = getelementptr i8, ptr %21, i64 4
  %.val = load i32, ptr %22, align 4, !tbaa !21
  %23 = sext i32 %.val to i64
  %24 = icmp slt i64 %indvars.iv.next, %23
  br i1 %24, label %.lr.ph, label %.critedge.loopexit, !llvm.loop !78

.critedge.loopexit:                               ; preds = %20
  %.val17.pre = load i32, ptr %2, align 4, !tbaa !35
  br label %.critedge

.critedge:                                        ; preds = %.critedge.loopexit, %1
  %.val17 = phi i32 [ %.val17.pre, %.critedge.loopexit ], [ %.val16, %1 ]
  %25 = sub nsw i32 %.val16, %.val17
  ret i32 %25
}